target datalayout = "e-m:e-p270:32:32-p271:32:32-p272:64:64-i64:64-i128:128-f80:128-n8:16:32:64-S128"
target triple = "x86_64-pc-linux-gnu"

%struct.ComplexMatrixN = type { i32, ptr, ptr }

; Function Attrs: nounwind uwtable
define void @bindArraysToStackComplexMatrixN(ptr dead_on_unwind noalias writable sret(%struct.ComplexMatrixN) align 8 %0, i32 noundef %1, ptr noundef %2, ptr noundef %3, ptr noundef %4, ptr noundef %5) #0 {
  %7 = alloca i32, align 4
  %8 = alloca ptr, align 8
  %9 = alloca ptr, align 8
  %10 = alloca ptr, align 8
  %11 = alloca ptr, align 8
  %12 = alloca i32, align 4
  %13 = alloca i32, align 4
  store i32 %1, ptr %7, align 4, !tbaa !9
  store ptr %2, ptr %8, align 8, !tbaa !27
  store ptr %3, ptr %9, align 8, !tbaa !27
  store ptr %4, ptr %10, align 8, !tbaa !62
  store ptr %5, ptr %11, align 8, !tbaa !62
  %14 = load i32, ptr %7, align 4, !tbaa !9
  %15 = shl i32 1, %14
  %16 = zext i32 %15 to i64
  %17 = load i32, ptr %7, align 4, !tbaa !9
  %18 = shl i32 1, %17
  %19 = zext i32 %18 to i64
  %20 = load i32, ptr %7, align 4, !tbaa !9
  %21 = getelementptr inbounds nuw %struct.ComplexMatrixN, ptr %0, i32 0, i32 0
  store i32 %20, ptr %21, align 8, !tbaa !22
  %22 = load ptr, ptr %10, align 8, !tbaa !62
  %23 = getelementptr inbounds nuw %struct.ComplexMatrixN, ptr %0, i32 0, i32 1
  store ptr %22, ptr %23, align 8, !tbaa !26
  %24 = load ptr, ptr %11, align 8, !tbaa !62
  %25 = getelementptr inbounds nuw %struct.ComplexMatrixN, ptr %0, i32 0, i32 2
  store ptr %24, ptr %25, align 8, !tbaa !29
  call void @llvm.lifetime.start.p0(i64 4, ptr %12) #8
  %26 = load i32, ptr %7, align 4, !tbaa !9
  %27 = shl i32 1, %26
  store i32 %27, ptr %12, align 4, !tbaa !9
  call void @llvm.lifetime.start.p0(i64 4, ptr %13) #8
  store i32 0, ptr %13, align 4, !tbaa !9
  br label %28

28:                                               ; preds = %54, %6
  %29 = load i32, ptr %13, align 4, !tbaa !9
  %30 = load i32, ptr %12, align 4, !tbaa !9
  %31 = icmp slt i32 %29, %30
  br i1 %31, label %33, label %32

32:                                               ; preds = %28
  call void @llvm.lifetime.end.p0(i64 4, ptr %13) #8
  br label %57

33:                                               ; preds = %28
  %34 = load ptr, ptr %8, align 8, !tbaa !27
  %35 = load i32, ptr %13, align 4, !tbaa !9
  %36 = sext i32 %35 to i64
  %37 = mul nsw i64 %36, %16
  %38 = getelementptr inbounds double, ptr %34, i64 %37
  %39 = getelementptr inbounds nuw %struct.ComplexMatrixN, ptr %0, i32 0, i32 1
  %40 = load ptr, ptr %39, align 8, !tbaa !26
  %41 = load i32, ptr %13, align 4, !tbaa !9
  %42 = sext i32 %41 to i64
  %43 = getelementptr inbounds ptr, ptr %40, i64 %42
  store ptr %38, ptr %43, align 8, !tbaa !27
  %44 = load ptr, ptr %9, align 8, !tbaa !27
  %45 = load i32, ptr %13, align 4, !tbaa !9
  %46 = sext i32 %45 to i64
  %47 = mul nsw i64 %46, %19
  %48 = getelementptr inbounds double, ptr %44, i64 %47
  %49 = getelementptr inbounds nuw %struct.ComplexMatrixN, ptr %0, i32 0, i32 2
  %50 = load ptr, ptr %49, align 8, !tbaa !29
  %51 = load i32, ptr %13, align 4, !tbaa !9
  %52 = sext i32 %51 to i64
  %53 = getelementptr inbounds ptr, ptr %50, i64 %52
  store ptr %48, ptr %53, align 8, !tbaa !27
  br label %54

54:                                               ; preds = %33
  %55 = load i32, ptr %13, align 4, !tbaa !9
  %56 = add nsw i32 %55, 1
  store i32 %56, ptr %13, align 4, !tbaa !9
  br label %28

57:                                               ; preds = %32
  call void @llvm.lifetime.end.p0(i64 4, ptr %12) #8
  ret void
}