; Function Attrs: nofree norecurse nosync nounwind memory(argmem: write) uwtable
define void @bindArraysToStackComplexMatrixN(ptr dead_on_unwind noalias writable writeonly sret(%struct.ComplexMatrixN) align 8 captures(none) initializes((0, 4), (8, 24)) %0, i32 noundef %1, ptr noundef %2, ptr noundef %3, ptr noundef %4, ptr noundef %5) local_unnamed_addr #18 {
  store i32 %1, ptr %0, align 8, !tbaa !14
  %7 = getelementptr inbounds nuw i8, ptr %0, i64 8
  store ptr %4, ptr %7, align 8, !tbaa !41
  %8 = getelementptr inbounds nuw i8, ptr %0, i64 16
  store ptr %5, ptr %8, align 8, !tbaa !42
  %.not = icmp eq i32 %1, 31
  br i1 %.not, label %._crit_edge, label %.lr.ph

.lr.ph:                                           ; preds = %6
  %9 = shl nuw nsw i32 1, %1
  %10 = zext nneg i32 %1 to i64
  %wide.trip.count = zext nneg i32 %9 to i64
  br label %11

._crit_edge:                                      ; preds = %11, %6
  ret void

11:                                               ; preds = %.lr.ph, %11
  %indvars.iv = phi i64 [ 0, %.lr.ph ], [ %indvars.iv.next, %11 ]
  %12 = shl i64 %indvars.iv, %10
  %13 = getelementptr inbounds double, ptr %2, i64 %12
  %14 = getelementptr inbounds nuw ptr, ptr %4, i64 %indvars.iv
  store ptr %13, ptr %14, align 8, !tbaa !19
  %15 = getelementptr inbounds double, ptr %3, i64 %12
  %16 = getelementptr inbounds nuw ptr, ptr %5, i64 %indvars.iv
  store ptr %15, ptr %16, align 8, !tbaa !19
  %indvars.iv.next = add nuw nsw i64 %indvars.iv, 1
  %exitcond.not = icmp eq i64 %indvars.iv.next, %wide.trip.count
  br i1 %exitcond.not, label %._crit_edge, label %11
}